#include <math.h>
#include <stdio.h>
#include <stdlib.h>
#include <string.h>

int main(){
	int n,k,i,j,f=0,s=0,a[10000];
	scanf("%d%d",&n,&k);
	for(i=1;i<n;i++){
		scanf("%d",&a[i]);
	}
	for(i=0;i<n;i++){
		if(f==0){
		 for(j=0;j<i;j++){
			if(a[i]+a[j]==k){
				printf("yes\n");
				f=1;
				s=1;
				break;
			}
		 }
		}
	}
	if(s==0){
		printf("no\n");
	}
	return 0;
}