; ModuleID = 'source-C-CXX/2/884.c'
source_filename = "source-C-CXX/2/884.c"
target datalayout = "e-m:e-p270:32:32-p271:32:32-p272:64:64-i64:64-f80:128-n8:16:32:64-S128"
target triple = "x86_64-pc-linux-gnu"

@.str = private unnamed_addr constant [5 x i8] c"%d%d\00", align 1
@.str.1 = private unnamed_addr constant [3 x i8] c"%d\00", align 1
@str = private unnamed_addr constant [3 x i8] c"no\00", align 1
@str.4 = private unnamed_addr constant [4 x i8] c"yes\00", align 1

; Function Attrs: nofree nounwind sspstrong uwtable
define dso_local i32 @main() local_unnamed_addr #0 {
  %1 = alloca i32, align 4
  %2 = alloca i32, align 4
  %3 = alloca [10000 x i32], align 16
  %4 = bitcast i32* %1 to i8*
  call void @llvm.lifetime.start.p0i8(i64 4, i8* nonnull %4) #4
  %5 = bitcast i32* %2 to i8*
  call void @llvm.lifetime.start.p0i8(i64 4, i8* nonnull %5) #4
  %6 = bitcast [10000 x i32]* %3 to i8*
  call void @llvm.lifetime.start.p0i8(i64 40000, i8* nonnull %6) #4
  %7 = call i32 (i8*, ...) @__isoc99_scanf(i8* getelementptr inbounds ([5 x i8], [5 x i8]* @.str, i64 0, i64 0), i32* nonnull %1, i32* nonnull %2)
  %8 = load i32, i32* %1, align 4, !tbaa !5
  %9 = icmp sgt i32 %8, 1
  br i1 %9, label %13, label %10

10:                                               ; preds = %13, %0
  %11 = phi i32 [ %8, %0 ], [ %18, %13 ]
  %12 = icmp sgt i32 %11, 0
  br i1 %12, label %21, label %54

13:                                               ; preds = %0, %13
  %14 = phi i64 [ %17, %13 ], [ 1, %0 ]
  %15 = getelementptr inbounds [10000 x i32], [10000 x i32]* %3, i64 0, i64 %14
  %16 = call i32 (i8*, ...) @__isoc99_scanf(i8* getelementptr inbounds ([3 x i8], [3 x i8]* @.str.1, i64 0, i64 0), i32* nonnull %15)
  %17 = add nuw nsw i64 %14, 1
  %18 = load i32, i32* %1, align 4, !tbaa !5
  %19 = sext i32 %18 to i64
  %20 = icmp slt i64 %17, %19
  br i1 %20, label %13, label %10, !llvm.loop !9

21:                                               ; preds = %10, %45
  %22 = phi i32 [ %46, %45 ], [ %11, %10 ]
  %23 = phi i64 [ %49, %45 ], [ 0, %10 ]
  %24 = phi i32 [ %48, %45 ], [ 0, %10 ]
  %25 = phi i32 [ %47, %45 ], [ 0, %10 ]
  %26 = icmp eq i32 %25, 0
  br i1 %26, label %27, label %45

27:                                               ; preds = %21
  %28 = load i32, i32* %2, align 4
  %29 = icmp eq i64 %23, 0
  br i1 %29, label %45, label %30

30:                                               ; preds = %27
  %31 = getelementptr inbounds [10000 x i32], [10000 x i32]* %3, i64 0, i64 %23
  %32 = load i32, i32* %31, align 4, !tbaa !5
  br label %35

33:                                               ; preds = %35
  %34 = icmp eq i64 %41, %23
  br i1 %34, label %45, label %35, !llvm.loop !11

35:                                               ; preds = %30, %33
  %36 = phi i64 [ 0, %30 ], [ %41, %33 ]
  %37 = getelementptr inbounds [10000 x i32], [10000 x i32]* %3, i64 0, i64 %36
  %38 = load i32, i32* %37, align 4, !tbaa !5
  %39 = add nsw i32 %38, %32
  %40 = icmp eq i32 %39, %28
  %41 = add nuw nsw i64 %36, 1
  br i1 %40, label %42, label %33

42:                                               ; preds = %35
  %43 = call i32 @puts(i8* nonnull dereferenceable(1) getelementptr inbounds ([4 x i8], [4 x i8]* @str.4, i64 0, i64 0))
  %44 = load i32, i32* %1, align 4, !tbaa !5
  br label %45

45:                                               ; preds = %33, %27, %21, %42
  %46 = phi i32 [ %44, %42 ], [ %22, %21 ], [ %22, %27 ], [ %22, %33 ]
  %47 = phi i32 [ 1, %42 ], [ 1, %21 ], [ 0, %27 ], [ 0, %33 ]
  %48 = phi i32 [ 1, %42 ], [ %24, %21 ], [ %24, %27 ], [ %24, %33 ]
  %49 = add nuw nsw i64 %23, 1
  %50 = sext i32 %46 to i64
  %51 = icmp slt i64 %49, %50
  br i1 %51, label %21, label %52, !llvm.loop !12

52:                                               ; preds = %45
  %53 = icmp eq i32 %48, 0
  br i1 %53, label %54, label %56

54:                                               ; preds = %10, %52
  %55 = call i32 @puts(i8* nonnull dereferenceable(1) getelementptr inbounds ([3 x i8], [3 x i8]* @str, i64 0, i64 0))
  br label %56

56:                                               ; preds = %54, %52
  call void @llvm.lifetime.end.p0i8(i64 40000, i8* nonnull %6) #4
  call void @llvm.lifetime.end.p0i8(i64 4, i8* nonnull %5) #4
  call void @llvm.lifetime.end.p0i8(i64 4, i8* nonnull %4) #4
  ret i32 0
}

; Function Attrs: argmemonly mustprogress nofree nosync nounwind willreturn
declare void @llvm.lifetime.start.p0i8(i64 immarg, i8* nocapture) #1

; Function Attrs: nofree nounwind
declare noundef i32 @__isoc99_scanf(i8* nocapture noundef readonly, ...) local_unnamed_addr #2

; Function Attrs: argmemonly mustprogress nofree nosync nounwind willreturn
declare void @llvm.lifetime.end.p0i8(i64 immarg, i8* nocapture) #1

; Function Attrs: nofree nounwind
declare noundef i32 @puts(i8* nocapture noundef readonly) local_unnamed_addr #3


!llvm.module.flags = !{!0, !1, !2, !3}
!llvm.ident = !{!4}

!0 = !{i32 1, !"wchar_size", i32 4}
!1 = !{i32 7, !"PIC Level", i32 2}
!2 = !{i32 7, !"PIE Level", i32 2}
!3 = !{i32 7, !"uwtable", i32 1}
!4 = !{!"clang version 13.0.0"}
!5 = !{!6, !6, i64 0}
!6 = !{!"int", !7, i64 0}
!7 = !{!"omnipotent char", !8, i64 0}
!8 = !{!"Simple C/C++ TBAA"}
!9 = distinct !{!9, !10}
!10 = !{!"llvm.loop.mustprogress"}
!11 = distinct !{!11, !10}
!12 = distinct !{!12, !10}
